target datalayout = "e-m:e-p270:32:32-p271:32:32-p272:64:64-i64:64-i128:128-f80:128-n8:16:32:64-S128"
target triple = "x86_64-pc-linux-gnu"

%struct.UConverterAlias = type { ptr, ptr, ptr, ptr, ptr, ptr, ptr, ptr, ptr, i32, i32, i32, i32, i32, i32, i32, i32, i32 }
%struct.UConverterAliasOptions = type { i16, i16 }

@_ZL10gMainTable = internal global %struct.UConverterAlias zeroinitializer, align 8

; Function Attrs: mustprogress nounwind uwtable
define ptr @ucnv_io_stripASCIIForCompare_77(ptr noundef %0, ptr noundef %1) #0 {
  %3 = alloca ptr, align 8
  %4 = alloca ptr, align 8
  %5 = alloca ptr, align 8
  %6 = alloca i8, align 1
  %7 = alloca i8, align 1
  %8 = alloca i8, align 1
  %9 = alloca i8, align 1
  store ptr %0, ptr %3, align 8, !tbaa !3
  store ptr %1, ptr %4, align 8, !tbaa !3
  call void @llvm.lifetime.start.p0(i64 8, ptr %5) #12
  %10 = load ptr, ptr %3, align 8, !tbaa !3
  store ptr %10, ptr %5, align 8, !tbaa !3
  call void @llvm.lifetime.start.p0(i64 1, ptr %6) #12
  call void @llvm.lifetime.start.p0(i64 1, ptr %7) #12
  call void @llvm.lifetime.start.p0(i64 1, ptr %8) #12
  call void @llvm.lifetime.start.p0(i64 1, ptr %9) #12
  store i8 0, ptr %9, align 1, !tbaa !8
  br label %11

11:                                               ; preds = %62, %56, %31, %2
  %12 = load ptr, ptr %4, align 8, !tbaa !3
  %13 = getelementptr inbounds nuw i8, ptr %12, i32 1
  store ptr %13, ptr %4, align 8, !tbaa !3
  %14 = load i8, ptr %12, align 1, !tbaa !8
  store i8 %14, ptr %8, align 1, !tbaa !8
  %15 = sext i8 %14 to i32
  %16 = icmp ne i32 %15, 0
  br i1 %16, label %17, label %66

17:                                               ; preds = %11
  %18 = load i8, ptr %8, align 1, !tbaa !8
  %19 = sext i8 %18 to i32
  %20 = icmp sge i32 %19, 0
  br i1 %20, label %21, label %26

21:                                               ; preds = %17
  %22 = load i8, ptr %8, align 1, !tbaa !8
  %23 = zext i8 %22 to i64
  %24 = getelementptr inbounds nuw [128 x i8], ptr @_ZL10asciiTypes, i64 0, i64 %23
  %25 = load i8, ptr %24, align 1, !tbaa !8
  br label %27

26:                                               ; preds = %17
  br label %27

27:                                               ; preds = %26, %21
  %28 = phi i8 [ %25, %21 ], [ 0, %26 ]
  store i8 %28, ptr %6, align 1, !tbaa !8
  %29 = load i8, ptr %6, align 1, !tbaa !8
  %30 = zext i8 %29 to i32
  switch i32 %30, label %60 [
    i32 0, label %31
    i32 1, label %32
    i32 2, label %59
  ]

31:                                               ; preds = %27
  store i8 0, ptr %9, align 1, !tbaa !8
  br label %11, !llvm.loop !9

32:                                               ; preds = %27
  %33 = load i8, ptr %9, align 1, !tbaa !8
  %34 = icmp ne i8 %33, 0
  br i1 %34, label %58, label %35

35:                                               ; preds = %32
  %36 = load ptr, ptr %4, align 8, !tbaa !3
  %37 = load i8, ptr %36, align 1, !tbaa !8
  %38 = sext i8 %37 to i32
  %39 = icmp sge i32 %38, 0
  br i1 %39, label %40, label %46

40:                                               ; preds = %35
  %41 = load ptr, ptr %4, align 8, !tbaa !3
  %42 = load i8, ptr %41, align 1, !tbaa !8
  %43 = zext i8 %42 to i64
  %44 = getelementptr inbounds nuw [128 x i8], ptr @_ZL10asciiTypes, i64 0, i64 %43
  %45 = load i8, ptr %44, align 1, !tbaa !8
  br label %47

46:                                               ; preds = %35
  br label %47

47:                                               ; preds = %46, %40
  %48 = phi i8 [ %45, %40 ], [ 0, %46 ]
  store i8 %48, ptr %7, align 1, !tbaa !8
  %49 = load i8, ptr %7, align 1, !tbaa !8
  %50 = zext i8 %49 to i32
  %51 = icmp eq i32 %50, 1
  br i1 %51, label %56, label %52

52:                                               ; preds = %47
  %53 = load i8, ptr %7, align 1, !tbaa !8
  %54 = zext i8 %53 to i32
  %55 = icmp eq i32 %54, 2
  br i1 %55, label %56, label %57

56:                                               ; preds = %52, %47
  br label %11, !llvm.loop !9

57:                                               ; preds = %52
  br label %58

58:                                               ; preds = %57, %32
  br label %62

59:                                               ; preds = %27
  store i8 1, ptr %9, align 1, !tbaa !8
  br label %62

60:                                               ; preds = %27
  %61 = load i8, ptr %6, align 1, !tbaa !8
  store i8 %61, ptr %8, align 1, !tbaa !8
  store i8 0, ptr %9, align 1, !tbaa !8
  br label %62

62:                                               ; preds = %60, %59, %58
  %63 = load i8, ptr %8, align 1, !tbaa !8
  %64 = load ptr, ptr %5, align 8, !tbaa !3
  %65 = getelementptr inbounds nuw i8, ptr %64, i32 1
  store ptr %65, ptr %5, align 8, !tbaa !3
  store i8 %63, ptr %64, align 1, !tbaa !8
  br label %11, !llvm.loop !9

66:                                               ; preds = %11
  %67 = load ptr, ptr %5, align 8, !tbaa !3
  store i8 0, ptr %67, align 1, !tbaa !8
  %68 = load ptr, ptr %3, align 8, !tbaa !3
  call void @llvm.lifetime.end.p0(i64 1, ptr %9) #12
  call void @llvm.lifetime.end.p0(i64 1, ptr %8) #12
  call void @llvm.lifetime.end.p0(i64 1, ptr %7) #12
  call void @llvm.lifetime.end.p0(i64 1, ptr %6) #12
  call void @llvm.lifetime.end.p0(i64 8, ptr %5) #12
  ret ptr %68
}

; Function Attrs: inlinehint mustprogress nounwind uwtable
define internal noundef i32 @_ZL13findConverterPKcPaP10UErrorCode(ptr noundef %0, ptr noundef %1, ptr noundef %2) #3 {
  %4 = alloca i32, align 4
  %5 = alloca ptr, align 8
  %6 = alloca ptr, align 8
  %7 = alloca ptr, align 8
  %8 = alloca i32, align 4
  %9 = alloca i32, align 4
  %10 = alloca i32, align 4
  %11 = alloca i32, align 4
  %12 = alloca i32, align 4
  %13 = alloca i32, align 4
  %14 = alloca [60 x i8], align 16
  %15 = alloca i32, align 4
  %16 = alloca i8, align 1
  store ptr %0, ptr %5, align 8, !tbaa !3
  store ptr %1, ptr %6, align 8, !tbaa !3
  store ptr %2, ptr %7, align 8, !tbaa !17
  call void @llvm.lifetime.start.p0(i64 4, ptr %8) #12
  call void @llvm.lifetime.start.p0(i64 4, ptr %9) #12
  call void @llvm.lifetime.start.p0(i64 4, ptr %10) #12
  call void @llvm.lifetime.start.p0(i64 4, ptr %11) #12
  call void @llvm.lifetime.start.p0(i64 4, ptr %12) #12
  call void @llvm.lifetime.start.p0(i64 4, ptr %13) #12
  %17 = load ptr, ptr getelementptr inbounds nuw (%struct.UConverterAlias, ptr @_ZL10gMainTable, i32 0, i32 6), align 8, !tbaa !28
  %18 = getelementptr inbounds nuw %struct.UConverterAliasOptions, ptr %17, i32 0, i32 0
  %19 = load i16, ptr %18, align 2, !tbaa !29
  %20 = zext i16 %19 to i32
  %21 = icmp eq i32 %20, 0
  %22 = zext i1 %21 to i32
  store i32 %22, ptr %13, align 4, !tbaa !14
  call void @llvm.lifetime.start.p0(i64 60, ptr %14) #12
  %23 = load i32, ptr %13, align 4, !tbaa !14
  %24 = icmp ne i32 %23, 0
  br i1 %24, label %36, label %25

25:                                               ; preds = %3
  %26 = load ptr, ptr %5, align 8, !tbaa !3
  %27 = call i64 @strlen(ptr noundef %26) #13
  %28 = icmp uge i64 %27, 60
  br i1 %28, label %29, label %31

29:                                               ; preds = %25
  %30 = load ptr, ptr %7, align 8, !tbaa !17
  store i32 15, ptr %30, align 4, !tbaa !26
  store i32 -1, ptr %4, align 4
  store i32 1, ptr %15, align 4
  br label %135

31:                                               ; preds = %25
  %32 = getelementptr inbounds [60 x i8], ptr %14, i64 0, i64 0
  %33 = load ptr, ptr %5, align 8, !tbaa !3
  %34 = call ptr @ucnv_io_stripASCIIForCompare_77(ptr noundef %32, ptr noundef %33)
  %35 = getelementptr inbounds [60 x i8], ptr %14, i64 0, i64 0
  store ptr %35, ptr %5, align 8, !tbaa !3
  br label %36

36:                                               ; preds = %31, %3
  store i32 0, ptr %9, align 4, !tbaa !14
  %37 = load i32, ptr getelementptr inbounds nuw (%struct.UConverterAlias, ptr @_ZL10gMainTable, i32 0, i32 12), align 4, !tbaa !31
  store i32 %37, ptr %10, align 4, !tbaa !14
  %38 = load i32, ptr %10, align 4, !tbaa !14
  store i32 %38, ptr %8, align 4, !tbaa !14
  store i32 -1, ptr %11, align 4, !tbaa !14
  br label %39

39:                                               ; preds = %133, %36
  %40 = load i32, ptr %9, align 4, !tbaa !14
  %41 = load i32, ptr %10, align 4, !tbaa !14
  %42 = add i32 %40, %41
  %43 = udiv i32 %42, 2
  store i32 %43, ptr %8, align 4, !tbaa !14
  %44 = load i32, ptr %11, align 4, !tbaa !14
  %45 = load i32, ptr %8, align 4, !tbaa !14
  %46 = icmp eq i32 %44, %45
  br i1 %46, label %47, label %48

47:                                               ; preds = %39
  br label %134

48:                                               ; preds = %39
  %49 = load i32, ptr %8, align 4, !tbaa !14
  store i32 %49, ptr %11, align 4, !tbaa !14
  %50 = load i32, ptr %13, align 4, !tbaa !14
  %51 = icmp ne i32 %50, 0
  br i1 %51, label %52, label %64

52:                                               ; preds = %48
  %53 = load ptr, ptr %5, align 8, !tbaa !3
  %54 = load ptr, ptr getelementptr inbounds nuw (%struct.UConverterAlias, ptr @_ZL10gMainTable, i32 0, i32 7), align 8, !tbaa !21
  %55 = load ptr, ptr getelementptr inbounds nuw (%struct.UConverterAlias, ptr @_ZL10gMainTable, i32 0, i32 2), align 8, !tbaa !32
  %56 = load i32, ptr %8, align 4, !tbaa !14
  %57 = zext i32 %56 to i64
  %58 = getelementptr inbounds nuw i16, ptr %55, i64 %57
  %59 = load i16, ptr %58, align 2, !tbaa !23
  %60 = zext i16 %59 to i32
  %61 = sext i32 %60 to i64
  %62 = getelementptr inbounds i16, ptr %54, i64 %61
  %63 = call i32 @ucnv_compareNames_77(ptr noundef %53, ptr noundef %62)
  store i32 %63, ptr %12, align 4, !tbaa !14
  br label %76

64:                                               ; preds = %48
  %65 = load ptr, ptr %5, align 8, !tbaa !3
  %66 = load ptr, ptr getelementptr inbounds nuw (%struct.UConverterAlias, ptr @_ZL10gMainTable, i32 0, i32 8), align 8, !tbaa !33
  %67 = load ptr, ptr getelementptr inbounds nuw (%struct.UConverterAlias, ptr @_ZL10gMainTable, i32 0, i32 2), align 8, !tbaa !32
  %68 = load i32, ptr %8, align 4, !tbaa !14
  %69 = zext i32 %68 to i64
  %70 = getelementptr inbounds nuw i16, ptr %67, i64 %69
  %71 = load i16, ptr %70, align 2, !tbaa !23
  %72 = zext i16 %71 to i32
  %73 = sext i32 %72 to i64
  %74 = getelementptr inbounds i16, ptr %66, i64 %73
  %75 = call i32 @strcmp(ptr noundef %65, ptr noundef %74) #13
  store i32 %75, ptr %12, align 4, !tbaa !14
  br label %76

76:                                               ; preds = %64, %52
  %77 = load i32, ptr %12, align 4, !tbaa !14
  %78 = icmp slt i32 %77, 0
  br i1 %78, label %79, label %81

79:                                               ; preds = %76
  %80 = load i32, ptr %8, align 4, !tbaa !14
  store i32 %80, ptr %10, align 4, !tbaa !14
  br label %133

81:                                               ; preds = %76
  %82 = load i32, ptr %12, align 4, !tbaa !14
  %83 = icmp sgt i32 %82, 0
  br i1 %83, label %84, label %86

84:                                               ; preds = %81
  %85 = load i32, ptr %8, align 4, !tbaa !14
  store i32 %85, ptr %9, align 4, !tbaa !14
  br label %132

86:                                               ; preds = %81
  %87 = load ptr, ptr getelementptr inbounds nuw (%struct.UConverterAlias, ptr @_ZL10gMainTable, i32 0, i32 3), align 8, !tbaa !34
  %88 = load i32, ptr %8, align 4, !tbaa !14
  %89 = zext i32 %88 to i64
  %90 = getelementptr inbounds nuw i16, ptr %87, i64 %89
  %91 = load i16, ptr %90, align 2, !tbaa !23
  %92 = zext i16 %91 to i32
  %93 = and i32 %92, 32768
  %94 = icmp ne i32 %93, 0
  br i1 %94, label %95, label %97

95:                                               ; preds = %86
  %96 = load ptr, ptr %7, align 8, !tbaa !17
  store i32 -122, ptr %96, align 4, !tbaa !26
  br label %97

97:                                               ; preds = %95, %86
  %98 = load ptr, ptr %6, align 8, !tbaa !3
  %99 = icmp ne ptr %98, null
  br i1 %99, label %100, label %124

100:                                              ; preds = %97
  call void @llvm.lifetime.start.p0(i64 1, ptr %16) #12
  %101 = load ptr, ptr getelementptr inbounds nuw (%struct.UConverterAlias, ptr @_ZL10gMainTable, i32 0, i32 6), align 8, !tbaa !28
  %102 = getelementptr inbounds nuw %struct.UConverterAliasOptions, ptr %101, i32 0, i32 1
  %103 = load i16, ptr %102, align 2, !tbaa !35
  %104 = trunc i16 %103 to i8
  store i8 %104, ptr %16, align 1, !tbaa !8
  %105 = load i8, ptr %16, align 1, !tbaa !8
  %106 = icmp ne i8 %105, 0
  br i1 %106, label %107, label %116

107:                                              ; preds = %100
  %108 = load ptr, ptr getelementptr inbounds nuw (%struct.UConverterAlias, ptr @_ZL10gMainTable, i32 0, i32 3), align 8, !tbaa !34
  %109 = load i32, ptr %8, align 4, !tbaa !14
  %110 = zext i32 %109 to i64
  %111 = getelementptr inbounds nuw i16, ptr %108, i64 %110
  %112 = load i16, ptr %111, align 2, !tbaa !23
  %113 = zext i16 %112 to i32
  %114 = and i32 %113, 16384
  %115 = icmp ne i32 %114, 0
  br i1 %115, label %120, label %116

116:                                              ; preds = %107, %100
  %117 = load i8, ptr %16, align 1, !tbaa !8
  %118 = icmp ne i8 %117, 0
  %119 = xor i1 %118, true
  br label %120

120:                                              ; preds = %116, %107
  %121 = phi i1 [ true, %107 ], [ %119, %116 ]
  %122 = zext i1 %121 to i8
  %123 = load ptr, ptr %6, align 8, !tbaa !3
  store i8 %122, ptr %123, align 1, !tbaa !8
  call void @llvm.lifetime.end.p0(i64 1, ptr %16) #12
  br label %124

124:                                              ; preds = %120, %97
  %125 = load ptr, ptr getelementptr inbounds nuw (%struct.UConverterAlias, ptr @_ZL10gMainTable, i32 0, i32 3), align 8, !tbaa !34
  %126 = load i32, ptr %8, align 4, !tbaa !14
  %127 = zext i32 %126 to i64
  %128 = getelementptr inbounds nuw i16, ptr %125, i64 %127
  %129 = load i16, ptr %128, align 2, !tbaa !23
  %130 = zext i16 %129 to i32
  %131 = and i32 %130, 4095
  store i32 %131, ptr %4, align 4
  store i32 1, ptr %15, align 4
  br label %135

132:                                              ; preds = %84
  br label %133

133:                                              ; preds = %132, %79
  br label %39, !llvm.loop !36

134:                                              ; preds = %47
  store i32 -1, ptr %4, align 4
  store i32 1, ptr %15, align 4
  br label %135

135:                                              ; preds = %134, %124, %29
  call void @llvm.lifetime.end.p0(i64 60, ptr %14) #12
  call void @llvm.lifetime.end.p0(i64 4, ptr %13) #12
  call void @llvm.lifetime.end.p0(i64 4, ptr %12) #12
  call void @llvm.lifetime.end.p0(i64 4, ptr %11) #12
  call void @llvm.lifetime.end.p0(i64 4, ptr %10) #12
  call void @llvm.lifetime.end.p0(i64 4, ptr %9) #12
  call void @llvm.lifetime.end.p0(i64 4, ptr %8) #12
  %136 = load i32, ptr %4, align 4
  ret i32 %136
}