; Function Attrs: inlinehint mustprogress nofree nounwind memory(read, argmem: readwrite, inaccessiblemem: none) uwtable
define internal fastcc noundef range(i32 -1, 4096) i32 @_ZL13findConverterPKcPaP10UErrorCode(ptr noundef readonly captures(none) %0, ptr noundef writeonly %1, ptr noundef writeonly captures(none) %2) unnamed_addr #4 {
  %4 = alloca [60 x i8], align 16
  %5 = load ptr, ptr getelementptr inbounds nuw (i8, ptr @_ZL10gMainTable, i64 48), align 8, !tbaa !42
  %6 = load i16, ptr %5, align 2, !tbaa !40
  %7 = icmp eq i16 %6, 0
  call void @llvm.lifetime.start.p0(i64 60, ptr nonnull %4) #14
  br i1 %7, label %.thread, label %12

.thread:                                          ; preds = %3
  %8 = load ptr, ptr getelementptr inbounds nuw (i8, ptr @_ZL10gMainTable, i64 16), align 8
  %9 = load ptr, ptr getelementptr inbounds nuw (i8, ptr @_ZL10gMainTable, i64 56), align 8
  %10 = load i32, ptr getelementptr inbounds nuw (i8, ptr @_ZL10gMainTable, i64 84), align 4, !tbaa !29
  %11 = lshr i32 %10, 1
  br label %.split.us

12:                                               ; preds = %3
  %13 = tail call i64 @strlen(ptr noundef nonnull dereferenceable(1) %0) #15
  %14 = icmp ugt i64 %13, 59
  br i1 %14, label %15, label %16

15:                                               ; preds = %12
  store i32 15, ptr %2, align 4, !tbaa !13
  br label %.loopexit

16:                                               ; preds = %12
  %17 = load i8, ptr %0, align 1, !tbaa !3
  %.not2831.i = icmp eq i8 %17, 0
  br i1 %.not2831.i, label %.thread71, label %.lr.ph.i

.thread71:                                        ; preds = %16
  store i8 0, ptr %4, align 16, !tbaa !3
  br label %.split.preheader

.lr.ph.i:                                         ; preds = %16, %.critedge.i
  %18 = phi i8 [ %40, %.critedge.i ], [ %17, %16 ]
  %.pn.i = phi ptr [ %22, %.critedge.i ], [ %0, %16 ]
  %.0.ph34.i = phi i8 [ %.1.i, %.critedge.i ], [ 0, %16 ]
  %.018.ph32.i = phi ptr [ %39, %.critedge.i ], [ %4, %16 ]
  %19 = icmp eq i8 %.0.ph34.i, 0
  br label %20

20:                                               ; preds = %.backedge.i, %.lr.ph.i
  %21 = phi i8 [ %18, %.lr.ph.i ], [ %38, %.backedge.i ]
  %.pn.pn.i = phi ptr [ %.pn.i, %.lr.ph.i ], [ %22, %.backedge.i ]
  %.029.i = phi i1 [ %19, %.lr.ph.i ], [ true, %.backedge.i ]
  %22 = getelementptr inbounds nuw i8, ptr %.pn.pn.i, i64 1
  %23 = icmp sgt i8 %21, -1
  br i1 %23, label %24, label %..backedge_crit_edge.i

24:                                               ; preds = %20
  %25 = zext nneg i8 %21 to i64
  %26 = getelementptr inbounds nuw [128 x i8], ptr @_ZL10asciiTypes, i64 0, i64 %25
  %27 = load i8, ptr %26, align 1, !tbaa !3
  switch i8 %27, label %.critedge.i.loopexit [
    i8 0, label %..backedge_crit_edge.i
    i8 1, label %28
    i8 2, label %.critedge.i
  ]

..backedge_crit_edge.i:                           ; preds = %24, %20
  %.pre.i = load i8, ptr %22, align 1, !tbaa !3
  br label %.backedge.i

28:                                               ; preds = %24
  br i1 %.029.i, label %29, label %.critedge.i

29:                                               ; preds = %28
  %30 = load i8, ptr %22, align 1, !tbaa !3
  %31 = icmp sgt i8 %30, -1
  br i1 %31, label %32, label %.critedge.i

32:                                               ; preds = %29
  %33 = zext nneg i8 %30 to i64
  %34 = getelementptr inbounds nuw [128 x i8], ptr @_ZL10asciiTypes, i64 0, i64 %33
  %35 = load i8, ptr %34, align 1, !tbaa !3
  %36 = add i8 %35, -1
  %37 = icmp ult i8 %36, 2
  br i1 %37, label %.backedge.i, label %.critedge.i

.backedge.i:                                      ; preds = %32, %..backedge_crit_edge.i
  %38 = phi i8 [ %.pre.i, %..backedge_crit_edge.i ], [ %30, %32 ]
  %.not.i = icmp eq i8 %38, 0
  br i1 %.not.i, label %.loopexit75, label %20, !llvm.loop !6

.critedge.i.loopexit:                             ; preds = %24
  br label %.critedge.i

.critedge.i:                                      ; preds = %32, %29, %28, %24, %.critedge.i.loopexit
  %.016.i = phi i8 [ %21, %24 ], [ %21, %32 ], [ %21, %29 ], [ %21, %28 ], [ %27, %.critedge.i.loopexit ]
  %.1.i = phi i8 [ 1, %24 ], [ 0, %32 ], [ 0, %29 ], [ 1, %28 ], [ 0, %.critedge.i.loopexit ]
  %39 = getelementptr inbounds nuw i8, ptr %.018.ph32.i, i64 1
  store i8 %.016.i, ptr %.018.ph32.i, align 1, !tbaa !3
  %40 = load i8, ptr %22, align 1, !tbaa !3
  %.not28.i = icmp eq i8 %40, 0
  br i1 %.not28.i, label %.loopexit75, label %.lr.ph.i, !llvm.loop !6

.loopexit75:                                      ; preds = %.critedge.i, %.backedge.i
  %.018.ph.lcssa.i = phi ptr [ %.018.ph32.i, %.backedge.i ], [ %39, %.critedge.i ]
  store i8 0, ptr %.018.ph.lcssa.i, align 1, !tbaa !3
  br label %.split.preheader

.split.preheader:                                 ; preds = %.loopexit75, %.thread71
  %41 = load i32, ptr getelementptr inbounds nuw (i8, ptr @_ZL10gMainTable, i64 84), align 4, !tbaa !29
  %42 = lshr i32 %41, 1
  %43 = load ptr, ptr getelementptr inbounds nuw (i8, ptr @_ZL10gMainTable, i64 64), align 8
  %44 = load ptr, ptr getelementptr inbounds nuw (i8, ptr @_ZL10gMainTable, i64 16), align 8
  br label %.split

.split.us:                                        ; preds = %.thread, %54
  %45 = phi i32 [ %56, %54 ], [ %11, %.thread ]
  %.03049.us = phi i32 [ %.1.us, %54 ], [ %10, %.thread ]
  %.03148.us = phi i32 [ %.132.us, %54 ], [ 0, %.thread ]
  %46 = zext nneg i32 %45 to i64
  %47 = getelementptr inbounds nuw i16, ptr %8, i64 %46
  %48 = load i16, ptr %47, align 2, !tbaa !22
  %49 = zext i16 %48 to i64
  %50 = getelementptr inbounds nuw i16, ptr %9, i64 %49
  %51 = tail call i32 @ucnv_compareNames_77(ptr noundef %0, ptr noundef %50)
  %52 = icmp slt i32 %51, 0
  br i1 %52, label %54, label %53

53:                                               ; preds = %.split.us
  %.not.us = icmp eq i32 %51, 0
  br i1 %.not.us, label %.split51.us, label %54

54:                                               ; preds = %53, %.split.us
  %.132.us = phi i32 [ %.03148.us, %.split.us ], [ %45, %53 ]
  %.1.us = phi i32 [ %45, %.split.us ], [ %.03049.us, %53 ]
  %55 = add i32 %.1.us, %.132.us
  %56 = lshr i32 %55, 1
  %57 = icmp eq i32 %45, %56
  br i1 %57, label %.loopexit, label %.split.us, !llvm.loop !48

.split:                                           ; preds = %.split.preheader, %83
  %58 = phi i32 [ %85, %83 ], [ %42, %.split.preheader ]
  %.03049 = phi i32 [ %.1, %83 ], [ %41, %.split.preheader ]
  %.03148 = phi i32 [ %.132, %83 ], [ 0, %.split.preheader ]
  %59 = zext nneg i32 %58 to i64
  %60 = getelementptr inbounds nuw i16, ptr %44, i64 %59
  %61 = load i16, ptr %60, align 2, !tbaa !22
  %62 = zext i16 %61 to i64
  %63 = getelementptr inbounds nuw i16, ptr %43, i64 %62
  %64 = call i32 @strcmp(ptr noundef nonnull dereferenceable(1) %4, ptr noundef nonnull dereferenceable(1) %63) #15
  %65 = icmp slt i32 %64, 0
  br i1 %65, label %83, label %66

66:                                               ; preds = %.split
  %.not = icmp eq i32 %64, 0
  br i1 %.not, label %.split51.us, label %83

.split51.us:                                      ; preds = %66, %53
  %.pre-phi = phi i64 [ %46, %53 ], [ %59, %66 ]
  %67 = load ptr, ptr getelementptr inbounds nuw (i8, ptr @_ZL10gMainTable, i64 24), align 8, !tbaa !37
  %68 = getelementptr inbounds nuw i16, ptr %67, i64 %.pre-phi
  %69 = load i16, ptr %68, align 2, !tbaa !22
  %.not35 = icmp sgt i16 %69, -1
  br i1 %.not35, label %71, label %70

70:                                               ; preds = %.split51.us
  store i32 -122, ptr %2, align 4, !tbaa !13
  br label %71

71:                                               ; preds = %70, %.split51.us
  %.not36 = icmp eq ptr %1, null
  br i1 %.not36, label %79, label %72

72:                                               ; preds = %71
  %73 = load ptr, ptr getelementptr inbounds nuw (i8, ptr @_ZL10gMainTable, i64 48), align 8, !tbaa !42
  %74 = getelementptr inbounds nuw i8, ptr %73, i64 2
  %75 = load i16, ptr %74, align 2, !tbaa !49
  %76 = and i16 %75, 255
  %.not37 = icmp eq i16 %76, 0
  %77 = and i16 %69, 16384
  %.not38 = icmp ne i16 %77, 0
  %narrow = or i1 %.not38, %.not37
  %78 = zext i1 %narrow to i8
  store i8 %78, ptr %1, align 1, !tbaa !3
  %.pre = load i16, ptr %68, align 2, !tbaa !22
  br label %79

79:                                               ; preds = %72, %71
  %80 = phi i16 [ %.pre, %72 ], [ %69, %71 ]
  %81 = and i16 %80, 4095
  %82 = zext nneg i16 %81 to i32
  br label %.loopexit

83:                                               ; preds = %66, %.split
  %.132 = phi i32 [ %.03148, %.split ], [ %58, %66 ]
  %.1 = phi i32 [ %58, %.split ], [ %.03049, %66 ]
  %84 = add i32 %.1, %.132
  %85 = lshr i32 %84, 1
  %86 = icmp eq i32 %58, %85
  br i1 %86, label %.loopexit, label %.split, !llvm.loop !48

.loopexit:                                        ; preds = %83, %54, %79, %15
  %.0 = phi i32 [ %82, %79 ], [ -1, %15 ], [ -1, %54 ], [ -1, %83 ]
  call void @llvm.lifetime.end.p0(i64 60, ptr nonnull %4) #14
  ret i32 %.0
}